target datalayout = "e-m:e-p270:32:32-p271:32:32-p272:64:64-i64:64-i128:128-f80:128-n8:16:32:64-S128"
target triple = "x86_64-unknown-linux-gnu"

%"class.llvh::StringRef" = type { ptr, i64 }
%"struct.hermes::IRPrinter" = type { ptr, i32, ptr, ptr, i8, [7 x i8], %"struct.hermes::InstructionNamer", %"struct.hermes::InstructionNamer", %"struct.hermes::InstructionNamer" }
%"struct.hermes::InstructionNamer" = type <{ %"class.std::map", i32, [4 x i8] }>
%"class.std::map" = type { %"class.std::_Rb_tree" }
%"class.std::_Rb_tree" = type { %"struct.std::_Rb_tree<hermes::Value *, std::pair<hermes::Value *const, unsigned int>, std::_Select1st<std::pair<hermes::Value *const, unsigned int>>, std::less<hermes::Value *>>::_Rb_tree_impl" }
%"struct.std::_Rb_tree<hermes::Value *, std::pair<hermes::Value *const, unsigned int>, std::_Select1st<std::pair<hermes::Value *const, unsigned int>>, std::less<hermes::Value *>>::_Rb_tree_impl" = type { %"struct.std::_Rb_tree_key_compare", %"struct.std::_Rb_tree_header" }
%"struct.std::_Rb_tree_key_compare" = type { %"struct.std::less" }
%"struct.std::less" = type { i8 }
%"struct.std::_Rb_tree_header" = type { %"struct.std::_Rb_tree_node_base", i64 }
%"struct.std::_Rb_tree_node_base" = type { i32, ptr, ptr, ptr }
%"class.hermes::Type" = type { i16, i16 }
%"class.llvh::raw_ostream" = type <{ ptr, ptr, ptr, ptr, i32, [4 x i8] }>

@.str.4 = private unnamed_addr constant [4 x i8] c" : \00", align 1

; Function Attrs: mustprogress nounwind uwtable
define linkonce_odr hidden noundef nonnull align 8 dereferenceable(36) ptr @_ZN4llvh11raw_ostreamlsENS_9StringRefE(ptr noundef nonnull align 8 dereferenceable(36) %this, ptr %Str.coerce0, i64 %Str.coerce1) #0 comdat align 2 {
entry:
  %this.addr.i11 = alloca ptr, align 8
  %this.addr.i9 = alloca ptr, align 8
  %this.addr.i = alloca ptr, align 8
  %retval = alloca ptr, align 8
  %Str = alloca %"class.llvh::StringRef", align 8
  %this.addr = alloca ptr, align 8
  %Size = alloca i64, align 8
  %0 = getelementptr inbounds { ptr, i64 }, ptr %Str, i32 0, i32 0
  store ptr %Str.coerce0, ptr %0, align 8
  %1 = getelementptr inbounds { ptr, i64 }, ptr %Str, i32 0, i32 1
  store i64 %Str.coerce1, ptr %1, align 8
  store ptr %this, ptr %this.addr, align 8
  %this1 = load ptr, ptr %this.addr, align 8
  store ptr %Str, ptr %this.addr.i, align 8
  %this1.i = load ptr, ptr %this.addr.i, align 8
  %Length.i = getelementptr inbounds %"class.llvh::StringRef", ptr %this1.i, i32 0, i32 1
  %2 = load i64, ptr %Length.i, align 8
  store i64 %2, ptr %Size, align 8
  %3 = load i64, ptr %Size, align 8
  %OutBufEnd = getelementptr inbounds %"class.llvh::raw_ostream", ptr %this1, i32 0, i32 2
  %4 = load ptr, ptr %OutBufEnd, align 8
  %OutBufCur = getelementptr inbounds %"class.llvh::raw_ostream", ptr %this1, i32 0, i32 3
  %5 = load ptr, ptr %OutBufCur, align 8
  %sub.ptr.lhs.cast = ptrtoint ptr %4 to i64
  %sub.ptr.rhs.cast = ptrtoint ptr %5 to i64
  %sub.ptr.sub = sub i64 %sub.ptr.lhs.cast, %sub.ptr.rhs.cast
  %cmp = icmp ugt i64 %3, %sub.ptr.sub
  br i1 %cmp, label %if.then, label %if.end

if.then:                                          ; preds = %entry
  store ptr %Str, ptr %this.addr.i11, align 8
  %this1.i12 = load ptr, ptr %this.addr.i11, align 8
  %6 = load ptr, ptr %this1.i12, align 8
  %7 = load i64, ptr %Size, align 8
  %call3 = call noundef nonnull align 8 dereferenceable(36) ptr @_ZN4llvh11raw_ostream5writeEPKcm(ptr noundef nonnull align 8 dereferenceable(36) %this1, ptr noundef %6, i64 noundef %7)
  store ptr %call3, ptr %retval, align 8
  br label %return

if.end:                                           ; preds = %entry
  %8 = load i64, ptr %Size, align 8
  %tobool = icmp ne i64 %8, 0
  br i1 %tobool, label %if.then4, label %if.end8

if.then4:                                         ; preds = %if.end
  %OutBufCur5 = getelementptr inbounds %"class.llvh::raw_ostream", ptr %this1, i32 0, i32 3
  %9 = load ptr, ptr %OutBufCur5, align 8
  store ptr %Str, ptr %this.addr.i9, align 8
  %this1.i10 = load ptr, ptr %this.addr.i9, align 8
  %10 = load ptr, ptr %this1.i10, align 8
  %11 = load i64, ptr %Size, align 8
  call void @llvm.memcpy.p0.p0.i64(ptr align 1 %9, ptr align 1 %10, i64 %11, i1 false)
  %12 = load i64, ptr %Size, align 8
  %OutBufCur7 = getelementptr inbounds %"class.llvh::raw_ostream", ptr %this1, i32 0, i32 3
  %13 = load ptr, ptr %OutBufCur7, align 8
  %add.ptr = getelementptr inbounds i8, ptr %13, i64 %12
  store ptr %add.ptr, ptr %OutBufCur7, align 8
  br label %if.end8

if.end8:                                          ; preds = %if.then4, %if.end
  store ptr %this1, ptr %retval, align 8
  br label %return

return:                                           ; preds = %if.end8, %if.then
  %14 = load ptr, ptr %retval, align 8
  ret ptr %14
}

; Function Attrs: mustprogress nounwind uwtable
define linkonce_odr hidden noundef nonnull align 8 dereferenceable(36) ptr @_ZN4llvh11raw_ostreamlsEPKc(ptr noundef nonnull align 8 dereferenceable(36) %this, ptr noundef %Str) #0 comdat align 2 {
entry:
  %this.addr.i = alloca ptr, align 8
  %Str.addr.i = alloca ptr, align 8
  %this.addr = alloca ptr, align 8
  %Str.addr = alloca ptr, align 8
  %agg.tmp = alloca %"class.llvh::StringRef", align 8
  store ptr %this, ptr %this.addr, align 8
  store ptr %Str, ptr %Str.addr, align 8
  %this1 = load ptr, ptr %this.addr, align 8
  %0 = load ptr, ptr %Str.addr, align 8
  store ptr %agg.tmp, ptr %this.addr.i, align 8
  store ptr %0, ptr %Str.addr.i, align 8
  %this1.i = load ptr, ptr %this.addr.i, align 8
  %1 = load ptr, ptr %Str.addr.i, align 8
  store ptr %1, ptr %this1.i, align 8
  %Length.i = getelementptr inbounds %"class.llvh::StringRef", ptr %this1.i, i32 0, i32 1
  %2 = load ptr, ptr %Str.addr.i, align 8
  %tobool.i = icmp ne ptr %2, null
  br i1 %tobool.i, label %cond.true.i, label %cond.false.i

cond.true.i:                                      ; preds = %entry
  %3 = load ptr, ptr %Str.addr.i, align 8
  %call.i = call i64 @strlen(ptr noundef %3) #10
  br label %_ZN4llvh9StringRefC2EPKc.exit

cond.false.i:                                     ; preds = %entry
  br label %_ZN4llvh9StringRefC2EPKc.exit

_ZN4llvh9StringRefC2EPKc.exit:                    ; preds = %cond.false.i, %cond.true.i
  %cond.i = phi i64 [ %call.i, %cond.true.i ], [ 0, %cond.false.i ]
  store i64 %cond.i, ptr %Length.i, align 8
  %4 = getelementptr inbounds { ptr, i64 }, ptr %agg.tmp, i32 0, i32 0
  %5 = load ptr, ptr %4, align 8
  %6 = getelementptr inbounds { ptr, i64 }, ptr %agg.tmp, i32 0, i32 1
  %7 = load i64, ptr %6, align 8
  %call = call noundef nonnull align 8 dereferenceable(36) ptr @_ZN4llvh11raw_ostreamlsENS_9StringRefE(ptr noundef nonnull align 8 dereferenceable(36) %this1, ptr %5, i64 %7)
  ret ptr %call
}

; Function Attrs: mustprogress nounwind uwtable
define linkonce_odr hidden noundef zeroext i1 @_ZNK6hermes4Type9isAnyTypeEv(ptr noundef nonnull align 2 dereferenceable(4) %this) #0 comdat align 2 {
entry:
  %this.addr = alloca ptr, align 8
  store ptr %this, ptr %this.addr, align 8
  %this1 = load ptr, ptr %this.addr, align 8
  %bitmask_ = getelementptr inbounds %"class.hermes::Type", ptr %this1, i32 0, i32 0
  %0 = load i16, ptr %bitmask_, align 2
  %conv = zext i16 %0 to i32
  %cmp = icmp eq i32 %conv, 1023
  ret i1 %cmp
}

; Function Attrs: mustprogress nounwind uwtable
define hidden void @_ZN6hermes9IRPrinter14printTypeLabelENS_4TypeE(ptr noundef nonnull align 8 dereferenceable(208) %this, i32 %T.coerce) unnamed_addr #0 align 2 {
entry:
  %T = alloca %"class.hermes::Type", align 2
  %this.addr = alloca ptr, align 8
  store i32 %T.coerce, ptr %T, align 2
  store ptr %this, ptr %this.addr, align 8
  %this1 = load ptr, ptr %this.addr, align 8
  %call = call noundef zeroext i1 @_ZNK6hermes4Type9isAnyTypeEv(ptr noundef nonnull align 2 dereferenceable(4) %T)
  br i1 %call, label %if.then, label %if.end

if.then:                                          ; preds = %entry
  br label %return

if.end:                                           ; preds = %entry
  %os = getelementptr inbounds %"struct.hermes::IRPrinter", ptr %this1, i32 0, i32 3
  %0 = load ptr, ptr %os, align 8
  %call2 = call noundef nonnull align 8 dereferenceable(36) ptr @_ZN4llvh11raw_ostreamlsEPKc(ptr noundef nonnull align 8 dereferenceable(36) %0, ptr noundef @.str.4)
  %call3 = call noundef nonnull align 8 dereferenceable(36) ptr @_ZN4llvhlsERNS_11raw_ostreamERKN6hermes4TypeE(ptr noundef nonnull align 8 dereferenceable(36) %call2, ptr noundef nonnull align 2 dereferenceable(4) %T)
  br label %return

return:                                           ; preds = %if.end, %if.then
  ret void
}