; Function Attrs: mustprogress nounwind uwtable
define hidden void @_ZN6hermes9IRPrinter14printTypeLabelENS_4TypeE(ptr nocapture noundef nonnull readonly align 8 dereferenceable(208) %this, i32 %T.coerce) unnamed_addr #0 align 2 {
entry:
  %T = alloca %"class.hermes::Type", align 4
  store i32 %T.coerce, ptr %T, align 4
  %0 = and i32 %T.coerce, 65535
  %cmp.i = icmp eq i32 %0, 1023
  br i1 %cmp.i, label %return, label %if.end

if.end:                                           ; preds = %entry
  %os = getelementptr inbounds i8, ptr %this, i64 24
  %1 = load ptr, ptr %os, align 8
  %OutBufEnd.i5.i = getelementptr inbounds i8, ptr %1, i64 16
  %2 = load ptr, ptr %OutBufEnd.i5.i, align 8
  %OutBufCur.i6.i = getelementptr inbounds i8, ptr %1, i64 24
  %3 = load ptr, ptr %OutBufCur.i6.i, align 8
  %sub.ptr.lhs.cast.i7.i = ptrtoint ptr %2 to i64
  %sub.ptr.rhs.cast.i8.i = ptrtoint ptr %3 to i64
  %sub.ptr.sub.i9.i = sub i64 %sub.ptr.lhs.cast.i7.i, %sub.ptr.rhs.cast.i8.i
  %cmp.i.i = icmp ult i64 %sub.ptr.sub.i9.i, 3
  br i1 %cmp.i.i, label %if.then.i.i, label %if.then4.i.i

if.then.i.i:                                      ; preds = %if.end
  %call3.i.i = tail call noundef nonnull align 8 dereferenceable(36) ptr @_ZN4llvh11raw_ostream5writeEPKcm(ptr noundef nonnull align 8 dereferenceable(36) %1, ptr noundef nonnull @.str.4, i64 noundef 3) #13
  br label %_ZN4llvh11raw_ostreamlsEPKc.exit

if.then4.i.i:                                     ; preds = %if.end
  tail call void @llvm.memcpy.p0.p0.i64(ptr noundef nonnull align 1 dereferenceable(3) %3, ptr noundef nonnull align 1 dereferenceable(3) @.str.4, i64 3, i1 false)
  %4 = load ptr, ptr %OutBufCur.i6.i, align 8
  %add.ptr.i.i = getelementptr inbounds i8, ptr %4, i64 3
  store ptr %add.ptr.i.i, ptr %OutBufCur.i6.i, align 8
  br label %_ZN4llvh11raw_ostreamlsEPKc.exit

_ZN4llvh11raw_ostreamlsEPKc.exit:                 ; preds = %if.then.i.i, %if.then4.i.i
  %phi.call.i = phi ptr [ %call3.i.i, %if.then.i.i ], [ %1, %if.then4.i.i ]
  %call3 = call noundef nonnull align 8 dereferenceable(36) ptr @_ZN4llvhlsERNS_11raw_ostreamERKN6hermes4TypeE(ptr noundef nonnull align 8 dereferenceable(36) %phi.call.i, ptr noundef nonnull align 2 dereferenceable(4) %T) #13
  br label %return

return:                                           ; preds = %entry, %_ZN4llvh11raw_ostreamlsEPKc.exit
  ret void
}